; Function Attrs: mustprogress nofree norecurse nosync nounwind willreturn memory(argmem: write) uwtable
define dso_local void @_ZN4llvm13RegBankSelect16InstrInsertPointC2ERNS_12MachineInstrEb(ptr noundef nonnull writeonly align 8 captures(none) dereferenceable(25) initializes((0, 9), (16, 25)) %0, ptr noundef nonnull align 8 dereferenceable(70) %1, i1 noundef zeroext %2) unnamed_addr #6 align 2 {
  %4 = zext i1 %2 to i8
  %5 = getelementptr inbounds nuw i8, ptr %0, i64 8
  store i8 0, ptr %5, align 8
  store ptr getelementptr inbounds nuw inrange(-16, 64) (i8, ptr @_ZTVN4llvm13RegBankSelect16InstrInsertPointE, i64 16), ptr %0, align 8
  %6 = getelementptr inbounds nuw i8, ptr %0, i64 16
  store ptr %1, ptr %6, align 8
  %7 = getelementptr inbounds nuw i8, ptr %0, i64 24
  store i8 %4, ptr %7, align 8
  ret void
}